; Function Attrs: mustprogress nofree norecurse nosync nounwind willreturn memory(argmem: readwrite) uwtable
define void @_ZN8QuantLib23FdmSimpleSwingConditionC2ESt6vectorIdSaIdEEN5boost10shared_ptrINS_9FdmMesherEEENS5_INS_23FdmInnerValueCalculatorEEEmm(ptr nocapture noundef nonnull writeonly align 8 dereferenceable(80) %this, ptr nocapture noundef %exerciseTimes, ptr nocapture noundef %mesher, ptr nocapture noundef %calculator, i64 noundef %swingDirection, i64 noundef %minExercises) unnamed_addr #8 align 2 {
entry:
  store ptr getelementptr inbounds inrange(-16, 24) (i8, ptr @_ZTVN8QuantLib23FdmSimpleSwingConditionE, i64 16), ptr %this, align 8, !tbaa !14
  %exerciseTimes_ = getelementptr inbounds nuw i8, ptr %this, i64 8
  %0 = load ptr, ptr %exerciseTimes, align 8, !tbaa !18
  store ptr %0, ptr %exerciseTimes_, align 8, !tbaa !18
  %_M_finish.i.i.i.i = getelementptr inbounds nuw i8, ptr %this, i64 16
  %_M_finish3.i.i.i.i = getelementptr inbounds nuw i8, ptr %exerciseTimes, i64 8
  %1 = load ptr, ptr %_M_finish3.i.i.i.i, align 8, !tbaa !20
  store ptr %1, ptr %_M_finish.i.i.i.i, align 8, !tbaa !20
  %_M_end_of_storage.i.i.i.i = getelementptr inbounds nuw i8, ptr %this, i64 24
  %_M_end_of_storage4.i.i.i.i = getelementptr inbounds nuw i8, ptr %exerciseTimes, i64 16
  %2 = load ptr, ptr %_M_end_of_storage4.i.i.i.i, align 8, !tbaa !21
  store ptr %2, ptr %_M_end_of_storage.i.i.i.i, align 8, !tbaa !21
  tail call void @llvm.memset.p0.i64(ptr noundef nonnull align 8 dereferenceable(24) %exerciseTimes, i8 0, i64 24, i1 false)
  %mesher_ = getelementptr inbounds nuw i8, ptr %this, i64 32
  %3 = load ptr, ptr %mesher, align 8, !tbaa !22
  store ptr %3, ptr %mesher_, align 8, !tbaa !22
  %pn.i = getelementptr inbounds nuw i8, ptr %this, i64 40
  %pn3.i = getelementptr inbounds nuw i8, ptr %mesher, i64 8
  %4 = load ptr, ptr %pn3.i, align 8, !tbaa !16
  store ptr %4, ptr %pn.i, align 8, !tbaa !16
  tail call void @llvm.memset.p0.i64(ptr noundef nonnull align 8 dereferenceable(16) %mesher, i8 0, i64 16, i1 false)
  %calculator_ = getelementptr inbounds nuw i8, ptr %this, i64 48
  %5 = load ptr, ptr %calculator, align 8, !tbaa !24
  store ptr %5, ptr %calculator_, align 8, !tbaa !24
  %pn.i1 = getelementptr inbounds nuw i8, ptr %this, i64 56
  %pn3.i2 = getelementptr inbounds nuw i8, ptr %calculator, i64 8
  %6 = load ptr, ptr %pn3.i2, align 8, !tbaa !16
  store ptr %6, ptr %pn.i1, align 8, !tbaa !16
  tail call void @llvm.memset.p0.i64(ptr noundef nonnull align 8 dereferenceable(16) %calculator, i8 0, i64 16, i1 false)
  %minExercises_ = getelementptr inbounds nuw i8, ptr %this, i64 64
  store i64 %minExercises, ptr %minExercises_, align 8, !tbaa !26
  %swingDirection_ = getelementptr inbounds nuw i8, ptr %this, i64 72
  store i64 %swingDirection, ptr %swingDirection_, align 8, !tbaa !32
  ret void
}